target datalayout = "e-m:e-p270:32:32-p271:32:32-p272:64:64-i64:64-i128:128-f80:128-n8:16:32:64-S128"
target triple = "x86_64-pc-linux-gnu"

%"class.std::vector.18" = type { %"struct.std::_Vector_base.19" }
%"struct.std::_Vector_base.19" = type { %"struct.std::_Vector_base<cv::Ptr<cv::datasets::TRACK_alovObj>, std::allocator<cv::Ptr<cv::datasets::TRACK_alovObj>>>::_Vector_impl" }
%"struct.std::_Vector_base<cv::Ptr<cv::datasets::TRACK_alovObj>, std::allocator<cv::Ptr<cv::datasets::TRACK_alovObj>>>::_Vector_impl" = type { %"struct.std::_Vector_base<cv::Ptr<cv::datasets::TRACK_alovObj>, std::allocator<cv::Ptr<cv::datasets::TRACK_alovObj>>>::_Vector_impl_data" }
%"struct.std::_Vector_base<cv::Ptr<cv::datasets::TRACK_alovObj>, std::allocator<cv::Ptr<cv::datasets::TRACK_alovObj>>>::_Vector_impl_data" = type { ptr, ptr, ptr }
%"class.cv::datasets::TRACK_alov" = type { %"class.cv::datasets::Dataset", %"class.std::vector.8", i32, i32 }
%"class.cv::datasets::Dataset" = type { ptr, %"class.std::vector", %"class.std::vector", %"class.std::vector", %"class.std::vector.3" }
%"class.std::vector" = type { %"struct.std::_Vector_base" }
%"struct.std::_Vector_base" = type { %"struct.std::_Vector_base<std::vector<cv::Ptr<cv::datasets::Object>>, std::allocator<std::vector<cv::Ptr<cv::datasets::Object>>>>::_Vector_impl" }
%"struct.std::_Vector_base<std::vector<cv::Ptr<cv::datasets::Object>>, std::allocator<std::vector<cv::Ptr<cv::datasets::Object>>>>::_Vector_impl" = type { %"struct.std::_Vector_base<std::vector<cv::Ptr<cv::datasets::Object>>, std::allocator<std::vector<cv::Ptr<cv::datasets::Object>>>>::_Vector_impl_data" }
%"struct.std::_Vector_base<std::vector<cv::Ptr<cv::datasets::Object>>, std::allocator<std::vector<cv::Ptr<cv::datasets::Object>>>>::_Vector_impl_data" = type { ptr, ptr, ptr }
%"class.std::vector.3" = type { %"struct.std::_Vector_base.4" }
%"struct.std::_Vector_base.4" = type { %"struct.std::_Vector_base<cv::Ptr<cv::datasets::Object>, std::allocator<cv::Ptr<cv::datasets::Object>>>::_Vector_impl" }
%"struct.std::_Vector_base<cv::Ptr<cv::datasets::Object>, std::allocator<cv::Ptr<cv::datasets::Object>>>::_Vector_impl" = type { %"struct.std::_Vector_base<cv::Ptr<cv::datasets::Object>, std::allocator<cv::Ptr<cv::datasets::Object>>>::_Vector_impl_data" }
%"struct.std::_Vector_base<cv::Ptr<cv::datasets::Object>, std::allocator<cv::Ptr<cv::datasets::Object>>>::_Vector_impl_data" = type { ptr, ptr, ptr }
%"class.std::vector.8" = type { %"struct.std::_Vector_base.9" }
%"struct.std::_Vector_base.9" = type { %"struct.std::_Vector_base<std::vector<cv::Ptr<cv::datasets::TRACK_alovObj>>, std::allocator<std::vector<cv::Ptr<cv::datasets::TRACK_alovObj>>>>::_Vector_impl" }
%"struct.std::_Vector_base<std::vector<cv::Ptr<cv::datasets::TRACK_alovObj>>, std::allocator<std::vector<cv::Ptr<cv::datasets::TRACK_alovObj>>>>::_Vector_impl" = type { %"struct.std::_Vector_base<std::vector<cv::Ptr<cv::datasets::TRACK_alovObj>>, std::allocator<std::vector<cv::Ptr<cv::datasets::TRACK_alovObj>>>>::_Vector_impl_data" }
%"struct.std::_Vector_base<std::vector<cv::Ptr<cv::datasets::TRACK_alovObj>>, std::allocator<std::vector<cv::Ptr<cv::datasets::TRACK_alovObj>>>>::_Vector_impl_data" = type { ptr, ptr, ptr }

@.str.25 = private unnamed_addr constant [53 x i8] c"Dataset ID is out of range...\0AAllowed IDs are: 1~%d\0A\00", align 1

; Function Attrs: mustprogress nounwind uwtable
define linkonce_odr hidden noundef i64 @_ZNKSt6vectorIN2cv3PtrINS0_8datasets13TRACK_alovObjEEESaIS4_EE4sizeEv(ptr noundef nonnull align 8 dereferenceable(24) %0) #2 comdat align 2 {
  %2 = alloca ptr, align 8
  store ptr %0, ptr %2, align 8, !tbaa !48
  %3 = load ptr, ptr %2, align 8
  %4 = getelementptr inbounds nuw %"struct.std::_Vector_base.19", ptr %3, i32 0, i32 0
  %5 = getelementptr inbounds nuw %"struct.std::_Vector_base<cv::Ptr<cv::datasets::TRACK_alovObj>, std::allocator<cv::Ptr<cv::datasets::TRACK_alovObj>>>::_Vector_impl_data", ptr %4, i32 0, i32 1
  %6 = load ptr, ptr %5, align 8, !tbaa !62
  %7 = getelementptr inbounds nuw %"struct.std::_Vector_base.19", ptr %3, i32 0, i32 0
  %8 = getelementptr inbounds nuw %"struct.std::_Vector_base<cv::Ptr<cv::datasets::TRACK_alovObj>, std::allocator<cv::Ptr<cv::datasets::TRACK_alovObj>>>::_Vector_impl_data", ptr %7, i32 0, i32 0
  %9 = load ptr, ptr %8, align 8, !tbaa !74
  %10 = ptrtoint ptr %6 to i64
  %11 = ptrtoint ptr %9 to i64
  %12 = sub i64 %10, %11
  %13 = sdiv exact i64 %12, 16
  ret i64 %13
}

; Function Attrs: mustprogress nounwind uwtable
define linkonce_odr hidden noundef nonnull align 8 dereferenceable(24) ptr @_ZNSt6vectorIS_IN2cv3PtrINS0_8datasets13TRACK_alovObjEEESaIS4_EESaIS6_EEixEm(ptr noundef nonnull align 8 dereferenceable(24) %0, i64 noundef %1) #2 comdat align 2 {
  %3 = alloca ptr, align 8
  %4 = alloca i64, align 8
  store ptr %0, ptr %3, align 8, !tbaa !69
  store i64 %1, ptr %4, align 8, !tbaa !44
  %5 = load ptr, ptr %3, align 8
  %6 = getelementptr inbounds nuw %"struct.std::_Vector_base.9", ptr %5, i32 0, i32 0
  %7 = getelementptr inbounds nuw %"struct.std::_Vector_base<std::vector<cv::Ptr<cv::datasets::TRACK_alovObj>>, std::allocator<std::vector<cv::Ptr<cv::datasets::TRACK_alovObj>>>>::_Vector_impl_data", ptr %6, i32 0, i32 0
  %8 = load ptr, ptr %7, align 8, !tbaa !85
  %9 = load i64, ptr %4, align 8, !tbaa !44
  %10 = getelementptr inbounds nuw %"class.std::vector.18", ptr %8, i64 %9
  ret ptr %10
}

; Function Attrs: mustprogress nounwind uwtable
define linkonce_odr hidden noundef i64 @_ZNKSt6vectorIS_IN2cv3PtrINS0_8datasets13TRACK_alovObjEEESaIS4_EESaIS6_EE4sizeEv(ptr noundef nonnull align 8 dereferenceable(24) %0) #2 comdat align 2 {
  %2 = alloca ptr, align 8
  store ptr %0, ptr %2, align 8, !tbaa !69
  %3 = load ptr, ptr %2, align 8
  %4 = getelementptr inbounds nuw %"struct.std::_Vector_base.9", ptr %3, i32 0, i32 0
  %5 = getelementptr inbounds nuw %"struct.std::_Vector_base<std::vector<cv::Ptr<cv::datasets::TRACK_alovObj>>, std::allocator<std::vector<cv::Ptr<cv::datasets::TRACK_alovObj>>>>::_Vector_impl_data", ptr %4, i32 0, i32 1
  %6 = load ptr, ptr %5, align 8, !tbaa !71
  %7 = getelementptr inbounds nuw %"struct.std::_Vector_base.9", ptr %3, i32 0, i32 0
  %8 = getelementptr inbounds nuw %"struct.std::_Vector_base<std::vector<cv::Ptr<cv::datasets::TRACK_alovObj>>, std::allocator<std::vector<cv::Ptr<cv::datasets::TRACK_alovObj>>>>::_Vector_impl_data", ptr %7, i32 0, i32 0
  %9 = load ptr, ptr %8, align 8, !tbaa !85
  %10 = ptrtoint ptr %6 to i64
  %11 = ptrtoint ptr %9 to i64
  %12 = sub i64 %10, %11
  %13 = sdiv exact i64 %12, 24
  ret i64 %13
}

; Function Attrs: mustprogress uwtable
define hidden noundef i32 @_ZN2cv8datasets14TRACK_alovImpl16getDatasetLengthEi(ptr noundef nonnull align 8 dereferenceable(136) %0, i32 noundef %1) unnamed_addr #3 align 2 {
  %3 = alloca i32, align 4
  %4 = alloca ptr, align 8
  %5 = alloca i32, align 4
  store ptr %0, ptr %4, align 8, !tbaa !13
  store i32 %1, ptr %5, align 4, !tbaa !15
  %6 = load ptr, ptr %4, align 8
  %7 = load i32, ptr %5, align 4, !tbaa !15
  %8 = icmp sgt i32 %7, 0
  br i1 %8, label %9, label %23

9:                                                ; preds = %2
  %10 = load i32, ptr %5, align 4, !tbaa !15
  %11 = getelementptr inbounds nuw %"class.cv::datasets::TRACK_alov", ptr %6, i32 0, i32 1
  %12 = call noundef i64 @_ZNKSt6vectorIS_IN2cv3PtrINS0_8datasets13TRACK_alovObjEEESaIS4_EESaIS6_EE4sizeEv(ptr noundef nonnull align 8 dereferenceable(24) %11) #4
  %13 = trunc i64 %12 to i32
  %14 = icmp sle i32 %10, %13
  br i1 %14, label %15, label %23

15:                                               ; preds = %9
  %16 = getelementptr inbounds nuw %"class.cv::datasets::TRACK_alov", ptr %6, i32 0, i32 1
  %17 = load i32, ptr %5, align 4, !tbaa !15
  %18 = sub nsw i32 %17, 1
  %19 = sext i32 %18 to i64
  %20 = call noundef nonnull align 8 dereferenceable(24) ptr @_ZNSt6vectorIS_IN2cv3PtrINS0_8datasets13TRACK_alovObjEEESaIS4_EESaIS6_EEixEm(ptr noundef nonnull align 8 dereferenceable(24) %16, i64 noundef %19) #4
  %21 = call noundef i64 @_ZNKSt6vectorIN2cv3PtrINS0_8datasets13TRACK_alovObjEEESaIS4_EE4sizeEv(ptr noundef nonnull align 8 dereferenceable(24) %20) #4
  %22 = trunc i64 %21 to i32
  store i32 %22, ptr %3, align 4
  br label %28

23:                                               ; preds = %9, %2
  %24 = getelementptr inbounds nuw %"class.cv::datasets::TRACK_alov", ptr %6, i32 0, i32 1
  %25 = call noundef i64 @_ZNKSt6vectorIS_IN2cv3PtrINS0_8datasets13TRACK_alovObjEEESaIS4_EESaIS6_EE4sizeEv(ptr noundef nonnull align 8 dereferenceable(24) %24) #4
  %26 = trunc i64 %25 to i32
  %27 = call i32 (ptr, ...) @printf(ptr noundef @.str.25, i32 noundef %26)
  store i32 -1, ptr %3, align 4
  br label %28

28:                                               ; preds = %23, %15
  %29 = load i32, ptr %3, align 4
  ret i32 %29
}